; Function Attrs: mustprogress uwtable
define noundef zeroext i1 @_ZNK8QuantLib35EurodollarFuturesImpliedStdDevQuote7isValidEv(ptr noundef nonnull align 8 dereferenceable(104) %this) unnamed_addr #8 align 2 {
entry:
  %forward_ = getelementptr inbounds nuw i8, ptr %this, i64 56
  %0 = load ptr, ptr %forward_, align 8, !tbaa !56
  %cmp.not.i.i = icmp eq ptr %0, null
  br i1 %cmp.not.i.i, label %cond.false.i.i, label %_ZNK8QuantLib6HandleINS_5QuoteEE5emptyEv.exit, !prof !80

cond.false.i.i:                                   ; preds = %entry
  tail call void @_ZN5boost16assertion_failedEPKcS1_S1_l(ptr noundef nonnull @.str.6, ptr noundef nonnull @__PRETTY_FUNCTION__._ZNK5boost10shared_ptrIN8QuantLib6HandleINS1_5QuoteEE4LinkEEptEv, ptr noundef nonnull @.str.7, i64 noundef 784)
  %.pre.i.i = load ptr, ptr %forward_, align 8, !tbaa !56
  br label %_ZNK8QuantLib6HandleINS_5QuoteEE5emptyEv.exit

_ZNK8QuantLib6HandleINS_5QuoteEE5emptyEv.exit:    ; preds = %entry, %cond.false.i.i
  %1 = phi ptr [ %0, %entry ], [ %.pre.i.i, %cond.false.i.i ]
  %h_.i.i = getelementptr inbounds nuw i8, ptr %1, i64 112
  %2 = load ptr, ptr %h_.i.i, align 8, !tbaa !81
  %cmp.i.i.i = icmp eq ptr %2, null
  br i1 %cmp.i.i.i, label %return, label %lor.lhs.false

lor.lhs.false:                                    ; preds = %_ZNK8QuantLib6HandleINS_5QuoteEE5emptyEv.exit
  %call3 = tail call noundef nonnull align 8 dereferenceable(16) ptr @_ZNK8QuantLib6HandleINS_5QuoteEEptEv(ptr noundef nonnull align 8 dereferenceable(16) %forward_)
  %3 = load ptr, ptr %call3, align 8, !tbaa !81
  %cmp.not.i = icmp eq ptr %3, null
  br i1 %cmp.not.i, label %cond.false.i, label %_ZNK5boost10shared_ptrIN8QuantLib5QuoteEEptEv.exit, !prof !80

cond.false.i:                                     ; preds = %lor.lhs.false
  tail call void @_ZN5boost16assertion_failedEPKcS1_S1_l(ptr noundef nonnull @.str.6, ptr noundef nonnull @__PRETTY_FUNCTION__._ZNK5boost10shared_ptrIN8QuantLib5QuoteEEptEv, ptr noundef nonnull @.str.7, i64 noundef 784)
  %.pre.i = load ptr, ptr %call3, align 8, !tbaa !81
  br label %_ZNK5boost10shared_ptrIN8QuantLib5QuoteEEptEv.exit

_ZNK5boost10shared_ptrIN8QuantLib5QuoteEEptEv.exit: ; preds = %lor.lhs.false, %cond.false.i
  %4 = phi ptr [ %3, %lor.lhs.false ], [ %.pre.i, %cond.false.i ]
  %vtable = load ptr, ptr %4, align 8, !tbaa !33
  %vfn = getelementptr inbounds i8, ptr %vtable, i64 24
  %5 = load ptr, ptr %vfn, align 8
  %call5 = tail call noundef zeroext i1 %5(ptr noundef nonnull align 8 dereferenceable(8) %4)
  br i1 %call5, label %if.end, label %return

if.end:                                           ; preds = %_ZNK5boost10shared_ptrIN8QuantLib5QuoteEEptEv.exit
  %call7 = tail call noundef nonnull align 8 dereferenceable(16) ptr @_ZNK8QuantLib6HandleINS_5QuoteEEptEv(ptr noundef nonnull align 8 dereferenceable(16) %forward_)
  %6 = load ptr, ptr %call7, align 8, !tbaa !81
  %cmp.not.i1 = icmp eq ptr %6, null
  br i1 %cmp.not.i1, label %cond.false.i2, label %_ZNK5boost10shared_ptrIN8QuantLib5QuoteEEptEv.exit4, !prof !80

cond.false.i2:                                    ; preds = %if.end
  tail call void @_ZN5boost16assertion_failedEPKcS1_S1_l(ptr noundef nonnull @.str.6, ptr noundef nonnull @__PRETTY_FUNCTION__._ZNK5boost10shared_ptrIN8QuantLib5QuoteEEptEv, ptr noundef nonnull @.str.7, i64 noundef 784)
  %.pre.i3 = load ptr, ptr %call7, align 8, !tbaa !81
  br label %_ZNK5boost10shared_ptrIN8QuantLib5QuoteEEptEv.exit4

_ZNK5boost10shared_ptrIN8QuantLib5QuoteEEptEv.exit4: ; preds = %if.end, %cond.false.i2
  %7 = phi ptr [ %6, %if.end ], [ %.pre.i3, %cond.false.i2 ]
  %vtable9 = load ptr, ptr %7, align 8, !tbaa !33
  %vfn10 = getelementptr inbounds i8, ptr %vtable9, i64 16
  %8 = load ptr, ptr %vfn10, align 8
  %call11 = tail call noundef double %8(ptr noundef nonnull align 8 dereferenceable(8) %7)
  %sub = fsub double 1.000000e+02, %call11
  %strike_ = getelementptr inbounds nuw i8, ptr %this, i64 32
  %9 = load double, ptr %strike_, align 8, !tbaa !53
  %cmp = fcmp ogt double %9, %sub
  br i1 %cmp, label %if.then12, label %if.else

if.then12:                                        ; preds = %_ZNK5boost10shared_ptrIN8QuantLib5QuoteEEptEv.exit4
  %putPrice_ = getelementptr inbounds nuw i8, ptr %this, i64 88
  %10 = load ptr, ptr %putPrice_, align 8, !tbaa !56
  %cmp.not.i.i5 = icmp eq ptr %10, null
  br i1 %cmp.not.i.i5, label %cond.false.i.i8, label %_ZNK8QuantLib6HandleINS_5QuoteEE5emptyEv.exit10, !prof !80

cond.false.i.i8:                                  ; preds = %if.then12
  tail call void @_ZN5boost16assertion_failedEPKcS1_S1_l(ptr noundef nonnull @.str.6, ptr noundef nonnull @__PRETTY_FUNCTION__._ZNK5boost10shared_ptrIN8QuantLib6HandleINS1_5QuoteEE4LinkEEptEv, ptr noundef nonnull @.str.7, i64 noundef 784)
  %.pre.i.i9 = load ptr, ptr %putPrice_, align 8, !tbaa !56
  br label %_ZNK8QuantLib6HandleINS_5QuoteEE5emptyEv.exit10

_ZNK8QuantLib6HandleINS_5QuoteEE5emptyEv.exit10:  ; preds = %if.then12, %cond.false.i.i8
  %11 = phi ptr [ %10, %if.then12 ], [ %.pre.i.i9, %cond.false.i.i8 ]
  %h_.i.i6 = getelementptr inbounds nuw i8, ptr %11, i64 112
  %12 = load ptr, ptr %h_.i.i6, align 8, !tbaa !81
  %cmp.i.i.i7 = icmp eq ptr %12, null
  br i1 %cmp.i.i.i7, label %return, label %land.rhs

land.rhs:                                         ; preds = %_ZNK8QuantLib6HandleINS_5QuoteEE5emptyEv.exit10
  %call15 = tail call noundef nonnull align 8 dereferenceable(16) ptr @_ZNK8QuantLib6HandleINS_5QuoteEEptEv(ptr noundef nonnull align 8 dereferenceable(16) %putPrice_)
  %13 = load ptr, ptr %call15, align 8, !tbaa !81
  %cmp.not.i11 = icmp eq ptr %13, null
  br i1 %cmp.not.i11, label %return.sink.split.sink.split, label %return.sink.split, !prof !80

if.else:                                          ; preds = %_ZNK5boost10shared_ptrIN8QuantLib5QuoteEEptEv.exit4
  %callPrice_ = getelementptr inbounds nuw i8, ptr %this, i64 72
  %14 = load ptr, ptr %callPrice_, align 8, !tbaa !56
  %cmp.not.i.i15 = icmp eq ptr %14, null
  br i1 %cmp.not.i.i15, label %cond.false.i.i18, label %_ZNK8QuantLib6HandleINS_5QuoteEE5emptyEv.exit20, !prof !80

cond.false.i.i18:                                 ; preds = %if.else
  tail call void @_ZN5boost16assertion_failedEPKcS1_S1_l(ptr noundef nonnull @.str.6, ptr noundef nonnull @__PRETTY_FUNCTION__._ZNK5boost10shared_ptrIN8QuantLib6HandleINS1_5QuoteEE4LinkEEptEv, ptr noundef nonnull @.str.7, i64 noundef 784)
  %.pre.i.i19 = load ptr, ptr %callPrice_, align 8, !tbaa !56
  br label %_ZNK8QuantLib6HandleINS_5QuoteEE5emptyEv.exit20

_ZNK8QuantLib6HandleINS_5QuoteEE5emptyEv.exit20:  ; preds = %if.else, %cond.false.i.i18
  %15 = phi ptr [ %14, %if.else ], [ %.pre.i.i19, %cond.false.i.i18 ]
  %h_.i.i16 = getelementptr inbounds nuw i8, ptr %15, i64 112
  %16 = load ptr, ptr %h_.i.i16, align 8, !tbaa !81
  %cmp.i.i.i17 = icmp eq ptr %16, null
  br i1 %cmp.i.i.i17, label %return, label %land.rhs21

land.rhs21:                                       ; preds = %_ZNK8QuantLib6HandleINS_5QuoteEE5emptyEv.exit20
  %call23 = tail call noundef nonnull align 8 dereferenceable(16) ptr @_ZNK8QuantLib6HandleINS_5QuoteEEptEv(ptr noundef nonnull align 8 dereferenceable(16) %callPrice_)
  %17 = load ptr, ptr %call23, align 8, !tbaa !81
  %cmp.not.i21 = icmp eq ptr %17, null
  br i1 %cmp.not.i21, label %return.sink.split.sink.split, label %return.sink.split, !prof !80

return.sink.split.sink.split:                     ; preds = %land.rhs21, %land.rhs
  %call23.sink = phi ptr [ %call15, %land.rhs ], [ %call23, %land.rhs21 ]
  tail call void @_ZN5boost16assertion_failedEPKcS1_S1_l(ptr noundef nonnull @.str.6, ptr noundef nonnull @__PRETTY_FUNCTION__._ZNK5boost10shared_ptrIN8QuantLib5QuoteEEptEv, ptr noundef nonnull @.str.7, i64 noundef 784)
  %.pre.i23 = load ptr, ptr %call23.sink, align 8, !tbaa !81
  br label %return.sink.split

return.sink.split:                                ; preds = %return.sink.split.sink.split, %land.rhs21, %land.rhs
  %.sink26 = phi ptr [ %13, %land.rhs ], [ %17, %land.rhs21 ], [ %.pre.i23, %return.sink.split.sink.split ]
  %vtable17 = load ptr, ptr %.sink26, align 8, !tbaa !33
  %vfn18 = getelementptr inbounds i8, ptr %vtable17, i64 24
  %18 = load ptr, ptr %vfn18, align 8
  %call19 = tail call noundef zeroext i1 %18(ptr noundef nonnull align 8 dereferenceable(8) %.sink26)
  br label %return

return:                                           ; preds = %return.sink.split, %_ZNK8QuantLib6HandleINS_5QuoteEE5emptyEv.exit10, %_ZNK8QuantLib6HandleINS_5QuoteEE5emptyEv.exit20, %_ZNK8QuantLib6HandleINS_5QuoteEE5emptyEv.exit, %_ZNK5boost10shared_ptrIN8QuantLib5QuoteEEptEv.exit
  %retval.0 = phi i1 [ false, %_ZNK5boost10shared_ptrIN8QuantLib5QuoteEEptEv.exit ], [ false, %_ZNK8QuantLib6HandleINS_5QuoteEE5emptyEv.exit ], [ false, %_ZNK8QuantLib6HandleINS_5QuoteEE5emptyEv.exit10 ], [ false, %_ZNK8QuantLib6HandleINS_5QuoteEE5emptyEv.exit20 ], [ %call19, %return.sink.split ]
  ret i1 %retval.0
}